target datalayout = "e-m:e-p270:32:32-p271:32:32-p272:64:64-i64:64-i128:128-f80:128-n8:16:32:64-S128"
target triple = "x86_64-pc-linux-gnu"

%"class.logging::LogMessage" = type <{ i32, [4 x i8], %"class.std::__cxx11::basic_ostringstream", i64, ptr, i32, [4 x i8] }>
%"class.std::__cxx11::basic_ostringstream" = type { %"class.std::basic_ostream.base", %"class.std::__cxx11::basic_stringbuf", %"class.std::basic_ios" }
%"class.std::basic_ostream.base" = type { ptr }
%"class.std::__cxx11::basic_stringbuf" = type { %"class.std::basic_streambuf", i32, %"class.std::__cxx11::basic_string" }
%"class.std::basic_streambuf" = type { ptr, ptr, ptr, ptr, ptr, ptr, ptr, %"class.std::locale" }
%"class.std::locale" = type { ptr }
%"class.std::__cxx11::basic_string" = type { %"struct.std::__cxx11::basic_string<char>::_Alloc_hider", i64, %union.anon }
%"struct.std::__cxx11::basic_string<char>::_Alloc_hider" = type { ptr }
%union.anon = type { i64, [8 x i8] }
%"class.std::basic_ios" = type { %"class.std::ios_base", ptr, i8, i8, ptr, ptr, ptr, ptr }
%"class.std::ios_base" = type { ptr, i64, i64, i32, i32, i32, ptr, %"struct.std::ios_base::_Words", [8 x %"struct.std::ios_base::_Words"], i32, ptr, %"class.std::locale" }
%"struct.std::ios_base::_Words" = type { ptr, i64 }
%"class.std::unique_ptr.42" = type { %"struct.std::__uniq_ptr_data.43" }
%"struct.std::__uniq_ptr_data.43" = type { %"class.std::__uniq_ptr_impl.44" }
%"class.std::__uniq_ptr_impl.44" = type { %"class.std::tuple.45" }
%"class.std::tuple.45" = type { %"struct.std::_Tuple_impl.46" }
%"struct.std::_Tuple_impl.46" = type { %"struct.std::_Head_base.49" }
%"struct.std::_Head_base.49" = type { ptr }
%"class.net::SpdyFramer" = type <{ ptr, i32, i32, i32, [4 x i8], i64, i64, i64, i64, i64, %"class.net::SpdyFramer::CharBuffer", i32, i32, i32, i32, %"struct.net::SpdyFramer::SpdySettingsScratch", %"class.std::unique_ptr.2", %"class.std::unique_ptr.10", %"class.std::unique_ptr.10", %"class.std::unique_ptr.18", %"class.std::unique_ptr.26", ptr, ptr, %"class.std::unique_ptr.34", ptr, %"class.std::__cxx11::basic_string", %"class.std::unique_ptr.42", i32, i8, i8, i8, i8, i8, i8, i8, [5 x i8] }>
%"class.net::SpdyFramer::CharBuffer" = type { %"class.std::unique_ptr", i64, i64 }
%"class.std::unique_ptr" = type { %"struct.std::__uniq_ptr_data" }
%"struct.std::__uniq_ptr_data" = type { %"class.std::__uniq_ptr_impl" }
%"class.std::__uniq_ptr_impl" = type { %"class.std::tuple" }
%"class.std::tuple" = type { %"struct.std::_Tuple_impl" }
%"struct.std::_Tuple_impl" = type { %"struct.std::_Head_base.1" }
%"struct.std::_Head_base.1" = type { ptr }
%"struct.net::SpdyFramer::SpdySettingsScratch" = type <{ %"class.net::SpdyFramer::CharBuffer", i32, [4 x i8] }>
%"class.std::unique_ptr.2" = type { %"struct.std::__uniq_ptr_data.3" }
%"struct.std::__uniq_ptr_data.3" = type { %"class.std::__uniq_ptr_impl.4" }
%"class.std::__uniq_ptr_impl.4" = type { %"class.std::tuple.5" }
%"class.std::tuple.5" = type { %"struct.std::_Tuple_impl.6" }
%"struct.std::_Tuple_impl.6" = type { %"struct.std::_Head_base.9" }
%"struct.std::_Head_base.9" = type { ptr }
%"class.std::unique_ptr.10" = type { %"struct.std::__uniq_ptr_data.11" }
%"struct.std::__uniq_ptr_data.11" = type { %"class.std::__uniq_ptr_impl.12" }
%"class.std::__uniq_ptr_impl.12" = type { %"class.std::tuple.13" }
%"class.std::tuple.13" = type { %"struct.std::_Tuple_impl.14" }
%"struct.std::_Tuple_impl.14" = type { %"struct.std::_Head_base.17" }
%"struct.std::_Head_base.17" = type { ptr }
%"class.std::unique_ptr.18" = type { %"struct.std::__uniq_ptr_data.19" }
%"struct.std::__uniq_ptr_data.19" = type { %"class.std::__uniq_ptr_impl.20" }
%"class.std::__uniq_ptr_impl.20" = type { %"class.std::tuple.21" }
%"class.std::tuple.21" = type { %"struct.std::_Tuple_impl.22" }
%"struct.std::_Tuple_impl.22" = type { %"struct.std::_Head_base.25" }
%"struct.std::_Head_base.25" = type { ptr }
%"class.std::unique_ptr.26" = type { %"struct.std::__uniq_ptr_data.27" }
%"struct.std::__uniq_ptr_data.27" = type { %"class.std::__uniq_ptr_impl.28" }
%"class.std::__uniq_ptr_impl.28" = type { %"class.std::tuple.29" }
%"class.std::tuple.29" = type { %"struct.std::_Tuple_impl.30" }
%"struct.std::_Tuple_impl.30" = type { %"struct.std::_Head_base.33" }
%"struct.std::_Head_base.33" = type { ptr }
%"class.std::unique_ptr.34" = type { %"struct.std::__uniq_ptr_data.35" }
%"struct.std::__uniq_ptr_data.35" = type { %"class.std::__uniq_ptr_impl.36" }
%"class.std::__uniq_ptr_impl.36" = type { %"class.std::tuple.37" }
%"class.std::tuple.37" = type { %"struct.std::_Tuple_impl.38" }
%"struct.std::_Tuple_impl.38" = type { %"struct.std::_Head_base.41" }
%"struct.std::_Head_base.41" = type { ptr }
%"class.logging::CheckOpResult" = type { ptr }
%"class.net::SpdyFrameBuilder" = type <{ %"class.std::unique_ptr", i64, i64, i64, i32, [4 x i8] }>
%"class.net::SpdySerializedFrame" = type <{ ptr, i64, i8, [7 x i8] }>
%"class.net::SpdyFrameWithStreamIdIR.base" = type <{ %"class.net::SpdyFrameIR", i32 }>
%"class.net::SpdyFrameIR" = type { ptr }
%"class.net::SpdyFrameWithStreamIdIR" = type <{ %"class.net::SpdyFrameIR", i32, [4 x i8] }>
%"class.net::SpdyWindowUpdateIR" = type { %"class.net::SpdyFrameWithStreamIdIR.base", i32 }

@.str = private unnamed_addr constant [121 x i8] c"generated/home/dtcxzyw/WorkSpace/Projects/compilers/llvm-opt-benchmark/bench/libquic/libquic/src/net/spdy/spdy_framer.cc\00", align 1

; Function Attrs: inlinehint mustprogress nounwind uwtable
define linkonce_odr noundef i32 @_ZN4base8ByteSwapEj(i32 noundef %0) #6 comdat {
  %2 = alloca i32, align 4
  store i32 %0, ptr %2, align 4, !tbaa !7
  %3 = load i32, ptr %2, align 4, !tbaa !7
  %4 = call i32 @llvm.bswap.i32(i32 %3)
  ret i32 %4
}

; Function Attrs: inlinehint mustprogress nounwind uwtable
define linkonce_odr noundef i32 @_ZN4base11HostToNet32Ej(i32 noundef %0) #6 comdat {
  %2 = alloca i32, align 4
  store i32 %0, ptr %2, align 4, !tbaa !7
  %3 = load i32, ptr %2, align 4, !tbaa !7
  %4 = call noundef i32 @_ZN4base8ByteSwapEj(i32 noundef %3)
  ret i32 %4
}

; Function Attrs: mustprogress uwtable
define noundef i64 @_ZNK3net10SpdyFramer18GetFrameHeaderSizeEv(ptr noundef nonnull align 8 dereferenceable(259) %0) #0 align 2 {
  %2 = alloca ptr, align 8
  store ptr %0, ptr %2, align 8, !tbaa !30
  %3 = load ptr, ptr %2, align 8
  %4 = getelementptr inbounds nuw %"class.net::SpdyFramer", ptr %3, i32 0, i32 27
  %5 = load i32, ptr %4, align 8, !tbaa !98
  %6 = call noundef i64 @_ZN3net13SpdyConstants18GetFrameHeaderSizeENS_16SpdyMajorVersionE(i32 noundef %5)
  ret i64 %6
}

; Function Attrs: mustprogress nounwind uwtable
define linkonce_odr noundef nonnull align 8 dereferenceable(8) ptr @_ZN7logging10LogMessage6streamEv(ptr noundef nonnull align 8 dereferenceable(404) %0) #4 comdat align 2 {
  %2 = alloca ptr, align 8
  store ptr %0, ptr %2, align 8, !tbaa !24
  %3 = load ptr, ptr %2, align 8
  %4 = getelementptr inbounds nuw %"class.logging::LogMessage", ptr %3, i32 0, i32 2
  ret ptr %4
}

; Function Attrs: mustprogress nounwind uwtable
define linkonce_odr noundef ptr @_ZN7logging13CheckOpResult7messageB5cxx11Ev(ptr noundef nonnull align 8 dereferenceable(8) %0) #4 comdat align 2 {
  %2 = alloca ptr, align 8
  store ptr %0, ptr %2, align 8, !tbaa !161
  %3 = load ptr, ptr %2, align 8
  %4 = getelementptr inbounds nuw %"class.logging::CheckOpResult", ptr %3, i32 0, i32 0
  %5 = load ptr, ptr %4, align 8, !tbaa !163
  ret ptr %5
}

; Function Attrs: mustprogress nounwind uwtable
define linkonce_odr noundef zeroext i1 @_ZNK7logging13CheckOpResultcvbEv(ptr noundef nonnull align 8 dereferenceable(8) %0) #4 comdat align 2 {
  %2 = alloca ptr, align 8
  store ptr %0, ptr %2, align 8, !tbaa !161
  %3 = load ptr, ptr %2, align 8
  %4 = getelementptr inbounds nuw %"class.logging::CheckOpResult", ptr %3, i32 0, i32 0
  %5 = load ptr, ptr %4, align 8, !tbaa !163
  %6 = icmp ne ptr %5, null
  %7 = xor i1 %6, true
  ret i1 %7
}

; Function Attrs: mustprogress nounwind uwtable
define linkonce_odr void @_ZN7logging13CheckOpResultC2EPNSt7__cxx1112basic_stringIcSt11char_traitsIcESaIcEEE(ptr noundef nonnull align 8 dereferenceable(8) %0, ptr noundef %1) unnamed_addr #4 comdat align 2 {
  %3 = alloca ptr, align 8
  %4 = alloca ptr, align 8
  store ptr %0, ptr %3, align 8, !tbaa !161
  store ptr %1, ptr %4, align 8, !tbaa !120
  %5 = load ptr, ptr %3, align 8
  %6 = getelementptr inbounds nuw %"class.logging::CheckOpResult", ptr %5, i32 0, i32 0
  %7 = load ptr, ptr %4, align 8, !tbaa !120
  store ptr %7, ptr %6, align 8, !tbaa !163
  ret void
}

; Function Attrs: mustprogress nounwind uwtable
define linkonce_odr noundef i32 @_ZNK3net18SpdyWindowUpdateIR5deltaEv(ptr noundef nonnull align 8 dereferenceable(16) %0) #4 comdat align 2 {
  %2 = alloca ptr, align 8
  store ptr %0, ptr %2, align 8, !tbaa !373
  %3 = load ptr, ptr %2, align 8
  %4 = getelementptr inbounds nuw %"class.net::SpdyWindowUpdateIR", ptr %3, i32 0, i32 1
  %5 = load i32, ptr %4, align 4, !tbaa !375
  ret i32 %5
}

; Function Attrs: mustprogress uwtable
define linkonce_odr noundef zeroext i1 @_ZN3net16SpdyFrameBuilder11WriteUInt32Ej(ptr noundef nonnull align 8 dereferenceable(36) %0, i32 noundef %1) #0 comdat align 2 {
  %3 = alloca ptr, align 8
  %4 = alloca i32, align 4
  store ptr %0, ptr %3, align 8, !tbaa !246
  store i32 %1, ptr %4, align 4, !tbaa !7
  %5 = load ptr, ptr %3, align 8
  %6 = load i32, ptr %4, align 4, !tbaa !7
  %7 = call noundef i32 @_ZN4base11HostToNet32Ej(i32 noundef %6)
  store i32 %7, ptr %4, align 4, !tbaa !7
  %8 = call noundef zeroext i1 @_ZN3net16SpdyFrameBuilder10WriteBytesEPKvj(ptr noundef nonnull align 8 dereferenceable(36) %5, ptr noundef %4, i32 noundef 4)
  ret i1 %8
}

; Function Attrs: mustprogress nounwind uwtable
define linkonce_odr noundef i32 @_ZNK3net23SpdyFrameWithStreamIdIR9stream_idEv(ptr noundef nonnull align 8 dereferenceable(12) %0) #4 comdat align 2 {
  %2 = alloca ptr, align 8
  store ptr %0, ptr %2, align 8, !tbaa !278
  %3 = load ptr, ptr %2, align 8
  %4 = getelementptr inbounds nuw %"class.net::SpdyFrameWithStreamIdIR", ptr %3, i32 0, i32 1
  %5 = load i32, ptr %4, align 8, !tbaa !280
  ret i32 %5
}

; Function Attrs: mustprogress uwtable
define noundef i64 @_ZNK3net10SpdyFramer19GetWindowUpdateSizeEv(ptr noundef nonnull align 8 dereferenceable(259) %0) #0 align 2 {
  %2 = alloca i64, align 8
  %3 = alloca ptr, align 8
  store ptr %0, ptr %3, align 8, !tbaa !30
  %4 = load ptr, ptr %3, align 8
  %5 = getelementptr inbounds nuw %"class.net::SpdyFramer", ptr %4, i32 0, i32 27
  %6 = load i32, ptr %5, align 8, !tbaa !98
  %7 = icmp eq i32 %6, 1
  br i1 %7, label %8, label %11

8:                                                ; preds = %1
  %9 = call noundef i64 @_ZNK3net10SpdyFramer18GetFrameHeaderSizeEv(ptr noundef nonnull align 8 dereferenceable(259) %4)
  %10 = add i64 %9, 8
  store i64 %10, ptr %2, align 8
  br label %14

11:                                               ; preds = %1
  %12 = call noundef i64 @_ZNK3net10SpdyFramer18GetFrameHeaderSizeEv(ptr noundef nonnull align 8 dereferenceable(259) %4)
  %13 = add i64 %12, 4
  store i64 %13, ptr %2, align 8
  br label %14

14:                                               ; preds = %11, %8
  %15 = load i64, ptr %2, align 8
  ret i64 %15
}

; Function Attrs: mustprogress uwtable
define void @_ZNK3net10SpdyFramer21SerializeWindowUpdateERKNS_18SpdyWindowUpdateIRE(ptr dead_on_unwind noalias writable sret(%"class.net::SpdySerializedFrame") align 8 %0, ptr noundef nonnull align 8 dereferenceable(259) %1, ptr noundef nonnull align 8 dereferenceable(16) %2) #0 align 2 personality ptr @__gxx_personality_v0 {
  %4 = alloca ptr, align 8
  %5 = alloca ptr, align 8
  %6 = alloca ptr, align 8
  %7 = alloca %"class.net::SpdyFrameBuilder", align 8
  %8 = alloca ptr, align 8
  %9 = alloca i32, align 4
  %10 = alloca %"class.logging::CheckOpResult", align 8
  %11 = alloca %"class.logging::LogMessage", align 8
  store ptr %0, ptr %4, align 8
  store ptr %1, ptr %5, align 8, !tbaa !30
  store ptr %2, ptr %6, align 8, !tbaa !373
  %12 = load ptr, ptr %5, align 8
  call void @llvm.lifetime.start.p0(i64 40, ptr %7) #18
  %13 = call noundef i64 @_ZNK3net10SpdyFramer19GetWindowUpdateSizeEv(ptr noundef nonnull align 8 dereferenceable(259) %12)
  %14 = getelementptr inbounds nuw %"class.net::SpdyFramer", ptr %12, i32 0, i32 27
  %15 = load i32, ptr %14, align 8, !tbaa !98
  call void @_ZN3net16SpdyFrameBuilderC1EmNS_16SpdyMajorVersionE(ptr noundef nonnull align 8 dereferenceable(36) %7, i64 noundef %13, i32 noundef %15)
  %16 = getelementptr inbounds nuw %"class.net::SpdyFramer", ptr %12, i32 0, i32 27
  %17 = load i32, ptr %16, align 8, !tbaa !98
  %18 = icmp eq i32 %17, 1
  br i1 %18, label %19, label %31

19:                                               ; preds = %3
  %20 = invoke noundef zeroext i1 @_ZN3net16SpdyFrameBuilder23WriteControlFrameHeaderERKNS_10SpdyFramerENS_13SpdyFrameTypeEh(ptr noundef nonnull align 8 dereferenceable(36) %7, ptr noundef nonnull align 8 dereferenceable(259) %12, i32 noundef 8, i8 noundef zeroext 0)
          to label %21 unwind label %27

21:                                               ; preds = %19
  %22 = load ptr, ptr %6, align 8, !tbaa !373
  %23 = invoke noundef i32 @_ZNK3net23SpdyFrameWithStreamIdIR9stream_idEv(ptr noundef nonnull align 8 dereferenceable(12) %22)
          to label %24 unwind label %27

24:                                               ; preds = %21
  %25 = invoke noundef zeroext i1 @_ZN3net16SpdyFrameBuilder11WriteUInt32Ej(ptr noundef nonnull align 8 dereferenceable(36) %7, i32 noundef %23)
          to label %26 unwind label %27

26:                                               ; preds = %24
  br label %37

27:                                               ; preds = %66, %40, %37, %34, %31, %24, %21, %19
  %28 = landingpad { ptr, i32 }
          cleanup
  %29 = extractvalue { ptr, i32 } %28, 0
  store ptr %29, ptr %8, align 8
  %30 = extractvalue { ptr, i32 } %28, 1
  store i32 %30, ptr %9, align 4
  br label %69

31:                                               ; preds = %3
  %32 = load ptr, ptr %6, align 8, !tbaa !373
  %33 = invoke noundef i32 @_ZNK3net23SpdyFrameWithStreamIdIR9stream_idEv(ptr noundef nonnull align 8 dereferenceable(12) %32)
          to label %34 unwind label %27

34:                                               ; preds = %31
  %35 = invoke noundef zeroext i1 @_ZN3net16SpdyFrameBuilder13BeginNewFrameERKNS_10SpdyFramerENS_13SpdyFrameTypeEhj(ptr noundef nonnull align 8 dereferenceable(36) %7, ptr noundef nonnull align 8 dereferenceable(259) %12, i32 noundef 8, i8 noundef zeroext 0, i32 noundef %33)
          to label %36 unwind label %27

36:                                               ; preds = %34
  br label %37

37:                                               ; preds = %36, %26
  %38 = load ptr, ptr %6, align 8, !tbaa !373
  %39 = invoke noundef i32 @_ZNK3net18SpdyWindowUpdateIR5deltaEv(ptr noundef nonnull align 8 dereferenceable(16) %38)
          to label %40 unwind label %27

40:                                               ; preds = %37
  %41 = invoke noundef zeroext i1 @_ZN3net16SpdyFrameBuilder11WriteUInt32Ej(ptr noundef nonnull align 8 dereferenceable(36) %7, i32 noundef %39)
          to label %42 unwind label %27

42:                                               ; preds = %40
  call void @llvm.lifetime.start.p0(i64 8, ptr %10) #18
  invoke void @_ZN7logging13CheckOpResultC2EPNSt7__cxx1112basic_stringIcSt11char_traitsIcESaIcEEE(ptr noundef nonnull align 8 dereferenceable(8) %10, ptr noundef null)
          to label %43 unwind label %47

43:                                               ; preds = %42
  %44 = invoke noundef zeroext i1 @_ZNK7logging13CheckOpResultcvbEv(ptr noundef nonnull align 8 dereferenceable(8) %10)
          to label %45 unwind label %47

45:                                               ; preds = %43
  br i1 %44, label %46, label %51

46:                                               ; preds = %45
  br label %66

47:                                               ; preds = %43, %42
  %48 = landingpad { ptr, i32 }
          cleanup
  %49 = extractvalue { ptr, i32 } %48, 0
  store ptr %49, ptr %8, align 8
  %50 = extractvalue { ptr, i32 } %48, 1
  store i32 %50, ptr %9, align 4
  br label %68

51:                                               ; preds = %45
  call void @llvm.lifetime.start.p0(i64 408, ptr %11) #18
  %52 = invoke noundef ptr @_ZN7logging13CheckOpResult7messageB5cxx11Ev(ptr noundef nonnull align 8 dereferenceable(8) %10)
          to label %53 unwind label %57

53:                                               ; preds = %51
  invoke void @_ZN7logging10LogMessageC1EPKciiPNSt7__cxx1112basic_stringIcSt11char_traitsIcESaIcEEE(ptr noundef nonnull align 8 dereferenceable(404) %11, ptr noundef @.str, i32 noundef 2783, i32 noundef 0, ptr noundef %52)
          to label %54 unwind label %57

54:                                               ; preds = %53
  %55 = invoke noundef nonnull align 8 dereferenceable(8) ptr @_ZN7logging10LogMessage6streamEv(ptr noundef nonnull align 8 dereferenceable(404) %11)
          to label %56 unwind label %61

56:                                               ; preds = %54
  call void @_ZN7logging10LogMessageD1Ev(ptr noundef nonnull align 8 dereferenceable(404) %11) #18
  call void @llvm.lifetime.end.p0(i64 408, ptr %11) #18
  br label %66

57:                                               ; preds = %53, %51
  %58 = landingpad { ptr, i32 }
          cleanup
  %59 = extractvalue { ptr, i32 } %58, 0
  store ptr %59, ptr %8, align 8
  %60 = extractvalue { ptr, i32 } %58, 1
  store i32 %60, ptr %9, align 4
  br label %65

61:                                               ; preds = %54
  %62 = landingpad { ptr, i32 }
          cleanup
  %63 = extractvalue { ptr, i32 } %62, 0
  store ptr %63, ptr %8, align 8
  %64 = extractvalue { ptr, i32 } %62, 1
  store i32 %64, ptr %9, align 4
  call void @_ZN7logging10LogMessageD1Ev(ptr noundef nonnull align 8 dereferenceable(404) %11) #18
  br label %65

65:                                               ; preds = %61, %57
  call void @llvm.lifetime.end.p0(i64 408, ptr %11) #18
  br label %68

66:                                               ; preds = %56, %46
  call void @llvm.lifetime.end.p0(i64 8, ptr %10) #18
  invoke void @_ZN3net16SpdyFrameBuilder4takeEv(ptr dead_on_unwind writable sret(%"class.net::SpdySerializedFrame") align 8 %0, ptr noundef nonnull align 8 dereferenceable(36) %7)
          to label %67 unwind label %27

67:                                               ; preds = %66
  call void @_ZN3net16SpdyFrameBuilderD1Ev(ptr noundef nonnull align 8 dereferenceable(36) %7) #18
  call void @llvm.lifetime.end.p0(i64 40, ptr %7) #18
  ret void

68:                                               ; preds = %65, %47
  call void @llvm.lifetime.end.p0(i64 8, ptr %10) #18
  br label %69

69:                                               ; preds = %68, %27
  call void @_ZN3net16SpdyFrameBuilderD1Ev(ptr noundef nonnull align 8 dereferenceable(36) %7) #18
  call void @llvm.lifetime.end.p0(i64 40, ptr %7) #18
  br label %70

70:                                               ; preds = %69
  %71 = load ptr, ptr %8, align 8
  %72 = load i32, ptr %9, align 4
  %73 = insertvalue { ptr, i32 } poison, ptr %71, 0
  %74 = insertvalue { ptr, i32 } %73, i32 %72, 1
  resume { ptr, i32 } %74
}