; Function Attrs: mustprogress uwtable
define void @_ZNK3net10SpdyFramer21SerializeWindowUpdateERKNS_18SpdyWindowUpdateIRE(ptr dead_on_unwind noalias writable sret(%"class.net::SpdySerializedFrame") align 8 %0, ptr noundef nonnull align 8 dereferenceable(259) %1, ptr noundef nonnull readonly align 8 captures(none) dereferenceable(16) %2) local_unnamed_addr #0 align 2 personality ptr @__gxx_personality_v0 {
  %4 = alloca i32, align 4
  %5 = alloca i32, align 4
  %6 = alloca %"class.net::SpdyFrameBuilder", align 8
  call void @llvm.lifetime.start.p0(i64 40, ptr nonnull %6) #25
  %7 = getelementptr inbounds nuw i8, ptr %1, i64 248
  %8 = load i32, ptr %7, align 8, !tbaa !82
  %9 = icmp eq i32 %8, 1
  %.3.i = select i1 %9, i64 8, i64 4
  %10 = tail call noundef i64 @_ZN3net13SpdyConstants18GetFrameHeaderSizeENS_16SpdyMajorVersionE(i32 noundef %8)
  %11 = add i64 %.3.i, %10
  %12 = load i32, ptr %7, align 8, !tbaa !82
  call void @_ZN3net16SpdyFrameBuilderC1EmNS_16SpdyMajorVersionE(ptr noundef nonnull align 8 dereferenceable(36) %6, i64 noundef %11, i32 noundef %12)
  %13 = load i32, ptr %7, align 8, !tbaa !82
  %14 = icmp eq i32 %13, 1
  br i1 %14, label %15, label %22

15:                                               ; preds = %3
  %16 = invoke noundef zeroext i1 @_ZN3net16SpdyFrameBuilder23WriteControlFrameHeaderERKNS_10SpdyFramerENS_13SpdyFrameTypeEh(ptr noundef nonnull align 8 dereferenceable(36) %6, ptr noundef nonnull align 8 dereferenceable(259) %1, i32 noundef 8, i8 noundef zeroext 0)
          to label %17 unwind label %33

17:                                               ; preds = %15
  %18 = getelementptr inbounds nuw i8, ptr %2, i64 8
  %19 = load i32, ptr %18, align 8, !tbaa !245
  call void @llvm.lifetime.start.p0(i64 4, ptr nonnull %5)
  %20 = call noundef i32 @llvm.bswap.i32(i32 %19)
  store i32 %20, ptr %5, align 4, !tbaa !118
  %21 = invoke noundef zeroext i1 @_ZN3net16SpdyFrameBuilder10WriteBytesEPKvj(ptr noundef nonnull align 8 dereferenceable(36) %6, ptr noundef nonnull %5, i32 noundef 4)
          to label %_ZN3net16SpdyFrameBuilder11WriteUInt32Ej.exit unwind label %33

_ZN3net16SpdyFrameBuilder11WriteUInt32Ej.exit:    ; preds = %17
  call void @llvm.lifetime.end.p0(i64 4, ptr nonnull %5)
  br label %26

22:                                               ; preds = %3
  %23 = getelementptr inbounds nuw i8, ptr %2, i64 8
  %24 = load i32, ptr %23, align 8, !tbaa !245
  %25 = invoke noundef zeroext i1 @_ZN3net16SpdyFrameBuilder13BeginNewFrameERKNS_10SpdyFramerENS_13SpdyFrameTypeEhj(ptr noundef nonnull align 8 dereferenceable(36) %6, ptr noundef nonnull align 8 dereferenceable(259) %1, i32 noundef 8, i8 noundef zeroext 0, i32 noundef %24)
          to label %26 unwind label %33

26:                                               ; preds = %_ZN3net16SpdyFrameBuilder11WriteUInt32Ej.exit, %22
  %27 = getelementptr inbounds nuw i8, ptr %2, i64 12
  %28 = load i32, ptr %27, align 4, !tbaa !311
  call void @llvm.lifetime.start.p0(i64 4, ptr nonnull %4)
  %29 = call noundef i32 @llvm.bswap.i32(i32 %28)
  store i32 %29, ptr %4, align 4, !tbaa !118
  %30 = invoke noundef zeroext i1 @_ZN3net16SpdyFrameBuilder10WriteBytesEPKvj(ptr noundef nonnull align 8 dereferenceable(36) %6, ptr noundef nonnull %4, i32 noundef 4)
          to label %31 unwind label %33

31:                                               ; preds = %26
  call void @llvm.lifetime.end.p0(i64 4, ptr nonnull %4)
  invoke void @_ZN3net16SpdyFrameBuilder4takeEv(ptr dead_on_unwind writable sret(%"class.net::SpdySerializedFrame") align 8 %0, ptr noundef nonnull align 8 dereferenceable(36) %6)
          to label %32 unwind label %33

32:                                               ; preds = %31
  call void @_ZN3net16SpdyFrameBuilderD1Ev(ptr noundef nonnull align 8 dereferenceable(36) %6) #25
  call void @llvm.lifetime.end.p0(i64 40, ptr nonnull %6) #25
  ret void

33:                                               ; preds = %15, %22, %31, %17, %26
  %34 = landingpad { ptr, i32 }
          cleanup
  call void @_ZN3net16SpdyFrameBuilderD1Ev(ptr noundef nonnull align 8 dereferenceable(36) %6) #25
  call void @llvm.lifetime.end.p0(i64 40, ptr nonnull %6) #25
  resume { ptr, i32 } %34
}